target datalayout = "e-m:e-p270:32:32-p271:32:32-p272:64:64-i64:64-i128:128-f80:128-n8:16:32:64-S128"
target triple = "x86_64-pc-linux-gnu"

%union.int_mv = type { i32 }
%struct.macroblockd_plane = type { i8, i32, i32, %struct.buf_2d, [2 x %struct.buf_2d], ptr, ptr, [8 x [2 x i16]], ptr, i8, i8, [8 x [19 x ptr]], [8 x [19 x ptr]] }
%struct.buf_2d = type { ptr, ptr, i32, i32, i32 }
%struct.macroblockd = type { i32, i32, i32, i8, [3 x %struct.macroblockd_plane], %struct.TileInfo, ptr, i8, i8, i8, i8, ptr, ptr, ptr, ptr, ptr, i32, i32, i32, i32, i32, [2 x ptr], ptr, [3 x ptr], [3 x [32 x i8]], ptr, [32 x i8], ptr, ptr, [32 x i8], [3 x %struct.WienerInfo], [3 x %struct.SgrprojInfo], i8, i8, [29 x [8 x %struct.candidate_mv]], [29 x [8 x i16]], i8, i8, [8 x i8], ptr, i32, [8 x i32], [8 x i32], i32, i32, ptr, ptr, i8, [4 x i8], [4 x i8], [7 x i8], [32768 x i8], %struct.cfl_ctx, [2 x i16], ptr, [2 x ptr] }
%struct.TileInfo = type { i32, i32, i32, i32, i32, i32 }
%struct.WienerInfo = type { [8 x i16], [8 x i16] }
%struct.SgrprojInfo = type { i32, [2 x i32] }
%struct.candidate_mv = type { %union.int_mv, %union.int_mv }
%struct.cfl_ctx = type { [1024 x i16], [1024 x i16], [2 x i32], i32, [2 x [32 x i16]], i32, i32, i32, i32, i32, i32 }

; Function Attrs: nounwind uwtable
define internal void @set_default_sgrproj(ptr noundef %0) #0 {
  %2 = alloca ptr, align 8
  store ptr %0, ptr %2, align 8
  %3 = load ptr, ptr %2, align 8
  %4 = getelementptr inbounds nuw %struct.SgrprojInfo, ptr %3, i32 0, i32 1
  %5 = getelementptr inbounds [2 x i32], ptr %4, i64 0, i64 0
  store i32 -32, ptr %5, align 4
  %6 = load ptr, ptr %2, align 8
  %7 = getelementptr inbounds nuw %struct.SgrprojInfo, ptr %6, i32 0, i32 1
  %8 = getelementptr inbounds [2 x i32], ptr %7, i64 0, i64 1
  store i32 31, ptr %8, align 4
  ret void
}

; Function Attrs: nounwind uwtable
define internal void @set_default_wiener(ptr noundef %0) #0 {
  %2 = alloca ptr, align 8
  store ptr %0, ptr %2, align 8
  %3 = load ptr, ptr %2, align 8
  %4 = getelementptr inbounds nuw %struct.WienerInfo, ptr %3, i32 0, i32 1
  %5 = getelementptr inbounds [8 x i16], ptr %4, i64 0, i64 0
  store i16 3, ptr %5, align 16
  %6 = load ptr, ptr %2, align 8
  %7 = getelementptr inbounds nuw %struct.WienerInfo, ptr %6, i32 0, i32 0
  %8 = getelementptr inbounds [8 x i16], ptr %7, i64 0, i64 0
  store i16 3, ptr %8, align 16
  %9 = load ptr, ptr %2, align 8
  %10 = getelementptr inbounds nuw %struct.WienerInfo, ptr %9, i32 0, i32 1
  %11 = getelementptr inbounds [8 x i16], ptr %10, i64 0, i64 1
  store i16 -7, ptr %11, align 2
  %12 = load ptr, ptr %2, align 8
  %13 = getelementptr inbounds nuw %struct.WienerInfo, ptr %12, i32 0, i32 0
  %14 = getelementptr inbounds [8 x i16], ptr %13, i64 0, i64 1
  store i16 -7, ptr %14, align 2
  %15 = load ptr, ptr %2, align 8
  %16 = getelementptr inbounds nuw %struct.WienerInfo, ptr %15, i32 0, i32 1
  %17 = getelementptr inbounds [8 x i16], ptr %16, i64 0, i64 2
  store i16 15, ptr %17, align 4
  %18 = load ptr, ptr %2, align 8
  %19 = getelementptr inbounds nuw %struct.WienerInfo, ptr %18, i32 0, i32 0
  %20 = getelementptr inbounds [8 x i16], ptr %19, i64 0, i64 2
  store i16 15, ptr %20, align 4
  %21 = load ptr, ptr %2, align 8
  %22 = getelementptr inbounds nuw %struct.WienerInfo, ptr %21, i32 0, i32 1
  %23 = getelementptr inbounds [8 x i16], ptr %22, i64 0, i64 3
  store i16 -22, ptr %23, align 2
  %24 = load ptr, ptr %2, align 8
  %25 = getelementptr inbounds nuw %struct.WienerInfo, ptr %24, i32 0, i32 0
  %26 = getelementptr inbounds [8 x i16], ptr %25, i64 0, i64 3
  store i16 -22, ptr %26, align 2
  %27 = load ptr, ptr %2, align 8
  %28 = getelementptr inbounds nuw %struct.WienerInfo, ptr %27, i32 0, i32 1
  %29 = getelementptr inbounds [8 x i16], ptr %28, i64 0, i64 4
  store i16 15, ptr %29, align 8
  %30 = load ptr, ptr %2, align 8
  %31 = getelementptr inbounds nuw %struct.WienerInfo, ptr %30, i32 0, i32 0
  %32 = getelementptr inbounds [8 x i16], ptr %31, i64 0, i64 4
  store i16 15, ptr %32, align 8
  %33 = load ptr, ptr %2, align 8
  %34 = getelementptr inbounds nuw %struct.WienerInfo, ptr %33, i32 0, i32 1
  %35 = getelementptr inbounds [8 x i16], ptr %34, i64 0, i64 5
  store i16 -7, ptr %35, align 2
  %36 = load ptr, ptr %2, align 8
  %37 = getelementptr inbounds nuw %struct.WienerInfo, ptr %36, i32 0, i32 0
  %38 = getelementptr inbounds [8 x i16], ptr %37, i64 0, i64 5
  store i16 -7, ptr %38, align 2
  %39 = load ptr, ptr %2, align 8
  %40 = getelementptr inbounds nuw %struct.WienerInfo, ptr %39, i32 0, i32 1
  %41 = getelementptr inbounds [8 x i16], ptr %40, i64 0, i64 6
  store i16 3, ptr %41, align 4
  %42 = load ptr, ptr %2, align 8
  %43 = getelementptr inbounds nuw %struct.WienerInfo, ptr %42, i32 0, i32 0
  %44 = getelementptr inbounds [8 x i16], ptr %43, i64 0, i64 6
  store i16 3, ptr %44, align 4
  ret void
}

; Function Attrs: nounwind uwtable
define hidden void @av1_reset_loop_restoration(ptr noundef %0, i32 noundef %1) #0 {
  %3 = alloca ptr, align 8
  %4 = alloca i32, align 4
  %5 = alloca i32, align 4
  store ptr %0, ptr %3, align 8
  store i32 %1, ptr %4, align 4
  store i32 0, ptr %5, align 4
  br label %6

6:                                                ; preds = %23, %2
  %7 = load i32, ptr %5, align 4
  %8 = load i32, ptr %4, align 4
  %9 = icmp slt i32 %7, %8
  br i1 %9, label %10, label %26

10:                                               ; preds = %6
  %11 = load ptr, ptr %3, align 8
  %12 = getelementptr inbounds nuw %struct.macroblockd, ptr %11, i32 0, i32 30
  %13 = getelementptr inbounds [3 x %struct.WienerInfo], ptr %12, i64 0, i64 0
  %14 = load i32, ptr %5, align 4
  %15 = sext i32 %14 to i64
  %16 = getelementptr inbounds %struct.WienerInfo, ptr %13, i64 %15
  call void @set_default_wiener(ptr noundef %16)
  %17 = load ptr, ptr %3, align 8
  %18 = getelementptr inbounds nuw %struct.macroblockd, ptr %17, i32 0, i32 31
  %19 = getelementptr inbounds [3 x %struct.SgrprojInfo], ptr %18, i64 0, i64 0
  %20 = load i32, ptr %5, align 4
  %21 = sext i32 %20 to i64
  %22 = getelementptr inbounds %struct.SgrprojInfo, ptr %19, i64 %21
  call void @set_default_sgrproj(ptr noundef %22)
  br label %23

23:                                               ; preds = %10
  %24 = load i32, ptr %5, align 4
  %25 = add nsw i32 %24, 1
  store i32 %25, ptr %5, align 4
  br label %6, !llvm.loop !7

26:                                               ; preds = %6
  ret void
}