; Function Attrs: nofree norecurse nosync nounwind memory(argmem: write) uwtable
define hidden void @av1_reset_loop_restoration(ptr nocapture noundef writeonly %0, i32 noundef %1) local_unnamed_addr #5 {
  %3 = icmp sgt i32 %1, 0
  br i1 %3, label %.lr.ph, label %._crit_edge

.lr.ph:                                           ; preds = %2
  %4 = getelementptr inbounds nuw i8, ptr %0, i64 8176
  %5 = getelementptr inbounds nuw i8, ptr %0, i64 8272
  %wide.trip.count = zext nneg i32 %1 to i64
  br label %6

6:                                                ; preds = %.lr.ph, %6
  %indvars.iv = phi i64 [ 0, %.lr.ph ], [ %indvars.iv.next, %6 ]
  %7 = getelementptr inbounds %struct.WienerInfo, ptr %4, i64 %indvars.iv
  %8 = getelementptr inbounds nuw i8, ptr %7, i64 16
  store i16 3, ptr %8, align 16
  store i16 3, ptr %7, align 16
  %9 = getelementptr inbounds i8, ptr %7, i64 18
  store i16 -7, ptr %9, align 2
  %10 = getelementptr inbounds i8, ptr %7, i64 2
  store i16 -7, ptr %10, align 2
  %11 = getelementptr inbounds i8, ptr %7, i64 20
  store i16 15, ptr %11, align 4
  %12 = getelementptr inbounds i8, ptr %7, i64 4
  store i16 15, ptr %12, align 4
  %13 = getelementptr inbounds i8, ptr %7, i64 22
  store i16 -22, ptr %13, align 2
  %14 = getelementptr inbounds i8, ptr %7, i64 6
  store i16 -22, ptr %14, align 2
  %15 = getelementptr inbounds i8, ptr %7, i64 24
  store i16 15, ptr %15, align 8
  %16 = getelementptr inbounds i8, ptr %7, i64 8
  store i16 15, ptr %16, align 8
  %17 = getelementptr inbounds i8, ptr %7, i64 26
  store i16 -7, ptr %17, align 2
  %18 = getelementptr inbounds i8, ptr %7, i64 10
  store i16 -7, ptr %18, align 2
  %19 = getelementptr inbounds i8, ptr %7, i64 28
  store i16 3, ptr %19, align 4
  %20 = getelementptr inbounds i8, ptr %7, i64 12
  store i16 3, ptr %20, align 4
  %21 = getelementptr inbounds %struct.SgrprojInfo, ptr %5, i64 %indvars.iv
  %22 = getelementptr inbounds nuw i8, ptr %21, i64 4
  store i32 -32, ptr %22, align 4
  %23 = getelementptr inbounds i8, ptr %21, i64 8
  store i32 31, ptr %23, align 4
  %indvars.iv.next = add nuw nsw i64 %indvars.iv, 1
  %exitcond.not = icmp eq i64 %indvars.iv.next, %wide.trip.count
  br i1 %exitcond.not, label %._crit_edge, label %6, !llvm.loop !6

._crit_edge:                                      ; preds = %6, %2
  ret void
}